target datalayout = "e-m:e-p270:32:32-p271:32:32-p272:64:64-i64:64-i128:128-f80:128-n8:16:32:64-S128"
target triple = "x86_64-pc-linux-gnu"

%"class.std::__cxx11::basic_string" = type { %"struct.std::__cxx11::basic_string<char>::_Alloc_hider", i64, %union.anon }
%"struct.std::__cxx11::basic_string<char>::_Alloc_hider" = type { ptr }
%union.anon = type { i64, [8 x i8] }
%"class.std::basic_string_view" = type { i64, ptr }
%"class.std::allocator.5" = type { i8 }
%struct.cmFileInstaller = type { %struct.cmFileCopier.base, i32, i32, i8, i8, i8, i8, i32, %"class.std::__cxx11::basic_string", %"class.std::__cxx11::basic_string" }
%struct.cmFileCopier.base = type <{ ptr, ptr, ptr, ptr, i8, [7 x i8], %class.cmFileTimeCache, i8, [3 x i8], i32, i32, [4 x i8], %"class.std::vector", ptr, i8, i8, i8, i8, [4 x i8], %"class.std::__cxx11::basic_string", %"class.std::__cxx11::basic_string", %"class.std::vector.8", i32 }>
%class.cmFileTimeCache = type { %"class.std::unordered_map" }
%"class.std::unordered_map" = type { %"class.std::_Hashtable" }
%"class.std::_Hashtable" = type { ptr, i64, %"struct.std::__detail::_Hash_node_base", i64, %"struct.std::__detail::_Prime_rehash_policy", ptr }
%"struct.std::__detail::_Hash_node_base" = type { ptr }
%"struct.std::__detail::_Prime_rehash_policy" = type { float, i64 }
%"class.std::vector" = type { %"struct.std::_Vector_base" }
%"struct.std::_Vector_base" = type { %"struct.std::_Vector_base<cmFileCopier::MatchRule, std::allocator<cmFileCopier::MatchRule>>::_Vector_impl" }
%"struct.std::_Vector_base<cmFileCopier::MatchRule, std::allocator<cmFileCopier::MatchRule>>::_Vector_impl" = type { %"struct.std::_Vector_base<cmFileCopier::MatchRule, std::allocator<cmFileCopier::MatchRule>>::_Vector_impl_data" }
%"struct.std::_Vector_base<cmFileCopier::MatchRule, std::allocator<cmFileCopier::MatchRule>>::_Vector_impl_data" = type { ptr, ptr, ptr }
%"class.std::vector.8" = type { %"struct.std::_Vector_base.9" }
%"struct.std::_Vector_base.9" = type { %"struct.std::_Vector_base<std::__cxx11::basic_string<char>, std::allocator<std::__cxx11::basic_string<char>>>::_Vector_impl" }
%"struct.std::_Vector_base<std::__cxx11::basic_string<char>, std::allocator<std::__cxx11::basic_string<char>>>::_Vector_impl" = type { %"struct.std::_Vector_base<std::__cxx11::basic_string<char>, std::allocator<std::__cxx11::basic_string<char>>>::_Vector_impl_data" }
%"struct.std::_Vector_base<std::__cxx11::basic_string<char>, std::allocator<std::__cxx11::basic_string<char>>>::_Vector_impl_data" = type { ptr, ptr, ptr }
%struct.cmFileCopier = type <{ ptr, ptr, ptr, ptr, i8, [7 x i8], %class.cmFileTimeCache, i8, [3 x i8], i32, i32, [4 x i8], %"class.std::vector", ptr, i8, i8, i8, i8, [4 x i8], %"class.std::__cxx11::basic_string", %"class.std::__cxx11::basic_string", %"class.std::vector.8", i32, [4 x i8] }>

@.str = private unnamed_addr constant [8 x i8] c"INSTALL\00", align 1
@.str.1 = private unnamed_addr constant [21 x i8] c"CMAKE_INSTALL_ALWAYS\00", align 1
@.str.2 = private unnamed_addr constant [29 x i8] c"CMAKE_INSTALL_MANIFEST_FILES\00", align 1
@.str.59 = private unnamed_addr constant [50 x i8] c"basic_string: construction from null is not valid\00", align 1

; Function Attrs: mustprogress nounwind uwtable
define linkonce_odr dso_local noundef i64 @_ZNSt11char_traitsIcE6lengthEPKc(ptr noundef %0) #5 comdat align 2 {
  %2 = alloca ptr, align 8
  store ptr %0, ptr %2, align 8
  %3 = load ptr, ptr %2, align 8
  %4 = call i64 @strlen(ptr noundef %3) #3
  ret i64 %4
}

; Function Attrs: mustprogress nounwind uwtable
define linkonce_odr dso_local void @_ZNSt7__cxx1112basic_stringIcSt11char_traitsIcESaIcEE12_Alloc_hiderD2Ev(ptr noundef nonnull align 8 dereferenceable(8) %0) unnamed_addr #5 comdat align 2 {
  %2 = alloca ptr, align 8
  store ptr %0, ptr %2, align 8
  %3 = load ptr, ptr %2, align 8
  call void @_ZNSaIcED2Ev(ptr noundef nonnull align 1 dereferenceable(1) %3) #3
  ret void
}

; Function Attrs: mustprogress uwtable
define linkonce_odr dso_local void @_ZNSt7__cxx1112basic_stringIcSt11char_traitsIcESaIcEEC2IS3_EEPKcRKS3_(ptr noundef nonnull align 8 dereferenceable(32) %0, ptr noundef %1, ptr noundef nonnull align 1 dereferenceable(1) %2) unnamed_addr #4 comdat align 2 personality ptr @__gxx_personality_v0 {
  %4 = alloca ptr, align 8
  %5 = alloca ptr, align 8
  %6 = alloca ptr, align 8
  %7 = alloca ptr, align 8
  %8 = alloca i32, align 4
  %9 = alloca ptr, align 8
  store ptr %0, ptr %4, align 8
  store ptr %1, ptr %5, align 8
  store ptr %2, ptr %6, align 8
  %10 = load ptr, ptr %4, align 8
  %11 = getelementptr inbounds %"class.std::__cxx11::basic_string", ptr %10, i32 0, i32 0
  %12 = call noundef ptr @_ZNSt7__cxx1112basic_stringIcSt11char_traitsIcESaIcEE13_M_local_dataEv(ptr noundef nonnull align 8 dereferenceable(32) %10)
  %13 = load ptr, ptr %6, align 8
  call void @_ZNSt7__cxx1112basic_stringIcSt11char_traitsIcESaIcEE12_Alloc_hiderC1EPcRKS3_(ptr noundef nonnull align 8 dereferenceable(8) %11, ptr noundef %12, ptr noundef nonnull align 1 dereferenceable(1) %13)
  %14 = load ptr, ptr %5, align 8
  %15 = icmp eq ptr %14, null
  br i1 %15, label %16, label %22

16:                                               ; preds = %3
  invoke void @_ZSt19__throw_logic_errorPKc(ptr noundef @.str.59) #13
          to label %17 unwind label %18

17:                                               ; preds = %16
  unreachable

18:                                               ; preds = %26, %22, %16
  %19 = landingpad { ptr, i32 }
          cleanup
  %20 = extractvalue { ptr, i32 } %19, 0
  store ptr %20, ptr %7, align 8
  %21 = extractvalue { ptr, i32 } %19, 1
  store i32 %21, ptr %8, align 4
  call void @_ZNSt7__cxx1112basic_stringIcSt11char_traitsIcESaIcEE12_Alloc_hiderD2Ev(ptr noundef nonnull align 8 dereferenceable(8) %11) #3
  br label %31

22:                                               ; preds = %3
  %23 = load ptr, ptr %5, align 8
  %24 = load ptr, ptr %5, align 8
  %25 = invoke noundef i64 @_ZNSt11char_traitsIcE6lengthEPKc(ptr noundef %24)
          to label %26 unwind label %18

26:                                               ; preds = %22
  %27 = getelementptr inbounds i8, ptr %23, i64 %25
  store ptr %27, ptr %9, align 8
  %28 = load ptr, ptr %5, align 8
  %29 = load ptr, ptr %9, align 8
  invoke void @_ZNSt7__cxx1112basic_stringIcSt11char_traitsIcESaIcEE12_M_constructIPKcEEvT_S8_St20forward_iterator_tag(ptr noundef nonnull align 8 dereferenceable(32) %10, ptr noundef %28, ptr noundef %29)
          to label %30 unwind label %18

30:                                               ; preds = %26
  ret void

31:                                               ; preds = %18
  %32 = load ptr, ptr %7, align 8
  %33 = load i32, ptr %8, align 4
  %34 = insertvalue { ptr, i32 } poison, ptr %32, 0
  %35 = insertvalue { ptr, i32 } %34, i32 %33, 1
  resume { ptr, i32 } %35
}

; Function Attrs: mustprogress nounwind uwtable
define linkonce_odr dso_local noundef zeroext i1 @_Z6cmIsOnSt17basic_string_viewIcSt11char_traitsIcEE(i64 %0, ptr %1) #5 comdat {
  %3 = alloca %"class.std::basic_string_view", align 8
  %4 = alloca %"class.std::basic_string_view", align 8
  %5 = getelementptr inbounds { i64, ptr }, ptr %3, i32 0, i32 0
  store i64 %0, ptr %5, align 8
  %6 = getelementptr inbounds { i64, ptr }, ptr %3, i32 0, i32 1
  store ptr %1, ptr %6, align 8
  call void @llvm.memcpy.p0.p0.i64(ptr align 8 %4, ptr align 8 %3, i64 16, i1 false)
  %7 = getelementptr inbounds { i64, ptr }, ptr %4, i32 0, i32 0
  %8 = load i64, ptr %7, align 8
  %9 = getelementptr inbounds { i64, ptr }, ptr %4, i32 0, i32 1
  %10 = load ptr, ptr %9, align 8
  %11 = call noundef zeroext i1 @_ZN7cmValue4IsOnESt17basic_string_viewIcSt11char_traitsIcEE(i64 %8, ptr %10) #3
  ret i1 %11
}

; Function Attrs: mustprogress uwtable
define dso_local void @_ZN15cmFileInstallerC2ER17cmExecutionStatus(ptr noundef nonnull align 8 dereferenceable(328) %0, ptr noundef nonnull align 8 dereferenceable(80) %1) unnamed_addr #4 align 2 personality ptr @__gxx_personality_v0 {
  %3 = alloca ptr, align 8
  %4 = alloca ptr, align 8
  %5 = alloca %"class.std::__cxx11::basic_string", align 8
  %6 = alloca ptr, align 8
  %7 = alloca i32, align 4
  %8 = alloca %"class.std::basic_string_view", align 8
  %9 = alloca %"class.std::__cxx11::basic_string", align 8
  %10 = alloca %"class.std::allocator.5", align 1
  store ptr %0, ptr %3, align 8
  store ptr %1, ptr %4, align 8
  %11 = load ptr, ptr %3, align 8
  %12 = load ptr, ptr %4, align 8
  call void @_ZN12cmFileCopierC2ER17cmExecutionStatusPKc(ptr noundef nonnull align 8 dereferenceable(244) %11, ptr noundef nonnull align 8 dereferenceable(80) %12, ptr noundef @.str)
  store ptr getelementptr inbounds ({ [14 x ptr] }, ptr @_ZTV15cmFileInstaller, i32 0, i32 0, i32 2), ptr %11, align 8
  %13 = getelementptr inbounds %struct.cmFileInstaller, ptr %11, i32 0, i32 1
  store i32 4, ptr %13, align 4
  %14 = getelementptr inbounds %struct.cmFileInstaller, ptr %11, i32 0, i32 2
  store i32 0, ptr %14, align 8
  %15 = getelementptr inbounds %struct.cmFileInstaller, ptr %11, i32 0, i32 3
  store i8 0, ptr %15, align 4
  %16 = getelementptr inbounds %struct.cmFileInstaller, ptr %11, i32 0, i32 4
  store i8 0, ptr %16, align 1
  %17 = getelementptr inbounds %struct.cmFileInstaller, ptr %11, i32 0, i32 5
  store i8 0, ptr %17, align 2
  %18 = getelementptr inbounds %struct.cmFileInstaller, ptr %11, i32 0, i32 6
  store i8 0, ptr %18, align 1
  %19 = getelementptr inbounds %struct.cmFileInstaller, ptr %11, i32 0, i32 7
  store i32 0, ptr %19, align 8
  %20 = getelementptr inbounds %struct.cmFileInstaller, ptr %11, i32 0, i32 8
  call void @_ZNSt7__cxx1112basic_stringIcSt11char_traitsIcESaIcEEC1Ev(ptr noundef nonnull align 8 dereferenceable(32) %20) #3
  %21 = getelementptr inbounds %struct.cmFileInstaller, ptr %11, i32 0, i32 9
  call void @_ZNSt7__cxx1112basic_stringIcSt11char_traitsIcESaIcEEC1Ev(ptr noundef nonnull align 8 dereferenceable(32) %21) #3
  %22 = getelementptr inbounds %struct.cmFileCopier, ptr %11, i32 0, i32 16
  store i8 0, ptr %22, align 2
  call void @_ZNSt7__cxx1112basic_stringIcSt11char_traitsIcESaIcEEC1Ev(ptr noundef nonnull align 8 dereferenceable(32) %5) #3
  %23 = invoke noundef zeroext i1 @_ZN5cmsys11SystemTools6GetEnvEPKcRNSt7__cxx1112basic_stringIcSt11char_traitsIcESaIcEEE(ptr noundef @.str.1, ptr noundef nonnull align 8 dereferenceable(32) %5)
          to label %24 unwind label %39

24:                                               ; preds = %2
  br i1 %23, label %25, label %43

25:                                               ; preds = %24
  %26 = call { i64, ptr } @_ZNKSt7__cxx1112basic_stringIcSt11char_traitsIcESaIcEEcvSt17basic_string_viewIcS2_EEv(ptr noundef nonnull align 8 dereferenceable(32) %5) #3
  %27 = getelementptr inbounds { i64, ptr }, ptr %8, i32 0, i32 0
  %28 = extractvalue { i64, ptr } %26, 0
  store i64 %28, ptr %27, align 8
  %29 = getelementptr inbounds { i64, ptr }, ptr %8, i32 0, i32 1
  %30 = extractvalue { i64, ptr } %26, 1
  store ptr %30, ptr %29, align 8
  %31 = getelementptr inbounds { i64, ptr }, ptr %8, i32 0, i32 0
  %32 = load i64, ptr %31, align 8
  %33 = getelementptr inbounds { i64, ptr }, ptr %8, i32 0, i32 1
  %34 = load ptr, ptr %33, align 8
  %35 = invoke noundef zeroext i1 @_Z6cmIsOnSt17basic_string_viewIcSt11char_traitsIcEE(i64 %32, ptr %34)
          to label %36 unwind label %39

36:                                               ; preds = %25
  %37 = getelementptr inbounds %struct.cmFileCopier, ptr %11, i32 0, i32 4
  %38 = zext i1 %35 to i8
  store i8 %38, ptr %37, align 8
  br label %43

39:                                               ; preds = %25, %2
  %40 = landingpad { ptr, i32 }
          cleanup
  %41 = extractvalue { ptr, i32 } %40, 0
  store ptr %41, ptr %6, align 8
  %42 = extractvalue { ptr, i32 } %40, 1
  store i32 %42, ptr %7, align 4
  br label %61

43:                                               ; preds = %36, %24
  %44 = getelementptr inbounds %struct.cmFileCopier, ptr %11, i32 0, i32 2
  %45 = load ptr, ptr %44, align 8
  call void @_ZNSaIcEC1Ev(ptr noundef nonnull align 1 dereferenceable(1) %10) #3
  invoke void @_ZNSt7__cxx1112basic_stringIcSt11char_traitsIcESaIcEEC2IS3_EEPKcRKS3_(ptr noundef nonnull align 8 dereferenceable(32) %9, ptr noundef @.str.2, ptr noundef nonnull align 1 dereferenceable(1) %10)
          to label %46 unwind label %52

46:                                               ; preds = %43
  %47 = invoke noundef nonnull align 8 dereferenceable(32) ptr @_ZNK10cmMakefile17GetSafeDefinitionERKNSt7__cxx1112basic_stringIcSt11char_traitsIcESaIcEEE(ptr noundef nonnull align 8 dereferenceable(3520) %45, ptr noundef nonnull align 8 dereferenceable(32) %9)
          to label %48 unwind label %56

48:                                               ; preds = %46
  %49 = getelementptr inbounds %struct.cmFileInstaller, ptr %11, i32 0, i32 9
  %50 = invoke noundef nonnull align 8 dereferenceable(32) ptr @_ZNSt7__cxx1112basic_stringIcSt11char_traitsIcESaIcEEaSERKS4_(ptr noundef nonnull align 8 dereferenceable(32) %49, ptr noundef nonnull align 8 dereferenceable(32) %47)
          to label %51 unwind label %56

51:                                               ; preds = %48
  call void @_ZNSt7__cxx1112basic_stringIcSt11char_traitsIcESaIcEED1Ev(ptr noundef nonnull align 8 dereferenceable(32) %9) #3
  call void @_ZNSaIcED1Ev(ptr noundef nonnull align 1 dereferenceable(1) %10) #3
  call void @_ZNSt7__cxx1112basic_stringIcSt11char_traitsIcESaIcEED1Ev(ptr noundef nonnull align 8 dereferenceable(32) %5) #3
  ret void

52:                                               ; preds = %43
  %53 = landingpad { ptr, i32 }
          cleanup
  %54 = extractvalue { ptr, i32 } %53, 0
  store ptr %54, ptr %6, align 8
  %55 = extractvalue { ptr, i32 } %53, 1
  store i32 %55, ptr %7, align 4
  br label %60

56:                                               ; preds = %48, %46
  %57 = landingpad { ptr, i32 }
          cleanup
  %58 = extractvalue { ptr, i32 } %57, 0
  store ptr %58, ptr %6, align 8
  %59 = extractvalue { ptr, i32 } %57, 1
  store i32 %59, ptr %7, align 4
  call void @_ZNSt7__cxx1112basic_stringIcSt11char_traitsIcESaIcEED1Ev(ptr noundef nonnull align 8 dereferenceable(32) %9) #3
  br label %60

60:                                               ; preds = %56, %52
  call void @_ZNSaIcED1Ev(ptr noundef nonnull align 1 dereferenceable(1) %10) #3
  br label %61

61:                                               ; preds = %60, %39
  call void @_ZNSt7__cxx1112basic_stringIcSt11char_traitsIcESaIcEED1Ev(ptr noundef nonnull align 8 dereferenceable(32) %5) #3
  call void @_ZNSt7__cxx1112basic_stringIcSt11char_traitsIcESaIcEED1Ev(ptr noundef nonnull align 8 dereferenceable(32) %21) #3
  call void @_ZNSt7__cxx1112basic_stringIcSt11char_traitsIcESaIcEED1Ev(ptr noundef nonnull align 8 dereferenceable(32) %20) #3
  call void @_ZN12cmFileCopierD2Ev(ptr noundef nonnull align 8 dereferenceable(244) %11) #3
  br label %62

62:                                               ; preds = %61
  %63 = load ptr, ptr %6, align 8
  %64 = load i32, ptr %7, align 4
  %65 = insertvalue { ptr, i32 } poison, ptr %63, 0
  %66 = insertvalue { ptr, i32 } %65, i32 %64, 1
  resume { ptr, i32 } %66
}